target datalayout = "e-m:e-p270:32:32-p271:32:32-p272:64:64-i64:64-i128:128-f80:128-n8:16:32:64-S128"
target triple = "x86_64-pc-linux-gnu"

%class.TimeInstant = type { %class.CounterRepresentation }
%class.CounterRepresentation = type { %class.Representation }
%class.Representation = type { i64 }
%class.JfrDeprecatedEventWriter = type <{ %class.TimeInstant, ptr, ptr, i8, i8, [6 x i8] }>

@_ZL23_previous_level_setting = internal global i64 -1, align 8
@_ZL22_current_level_setting = internal global i64 -1, align 8

; Function Attrs: mustprogress nounwind uwtable
define linkonce_odr hidden void @_ZN14RepresentationI33FastUnorderedElapsedCounterSourceEC2Ev(ptr noundef nonnull align 8 dereferenceable(8) %0) unnamed_addr #1 comdat align 2 {
  %2 = alloca ptr, align 8
  store ptr %0, ptr %2, align 8
  %3 = load ptr, ptr %2, align 8
  %4 = getelementptr inbounds %class.Representation, ptr %3, i32 0, i32 0
  store i64 0, ptr %4, align 8
  ret void
}

; Function Attrs: mustprogress nounwind uwtable
define linkonce_odr hidden void @_ZN21CounterRepresentationI33FastUnorderedElapsedCounterSourceEC2Ev(ptr noundef nonnull align 8 dereferenceable(8) %0) unnamed_addr #1 comdat align 2 {
  %2 = alloca ptr, align 8
  store ptr %0, ptr %2, align 8
  %3 = load ptr, ptr %2, align 8
  call void @_ZN14RepresentationI33FastUnorderedElapsedCounterSourceEC2Ev(ptr noundef nonnull align 8 dereferenceable(8) %3)
  ret void
}

; Function Attrs: mustprogress nounwind uwtable
define internal noundef zeroext i1 @_ZL5levelv() #1 {
  %1 = load i64, ptr @_ZL23_previous_level_setting, align 8
  %2 = icmp eq i64 %1, -1
  br i1 %2, label %3, label %5

3:                                                ; preds = %0
  %4 = load i64, ptr @_ZL22_current_level_setting, align 8
  br label %7

5:                                                ; preds = %0
  %6 = load i64, ptr @_ZL23_previous_level_setting, align 8
  br label %7

7:                                                ; preds = %5, %3
  %8 = phi i64 [ %4, %3 ], [ %6, %5 ]
  %9 = icmp ne i64 %8, 0
  ret i1 %9
}

; Function Attrs: mustprogress nounwind uwtable
define linkonce_odr hidden void @_ZN11TimeInstantI21CounterRepresentation33FastUnorderedElapsedCounterSourceE5stampEv(ptr noundef nonnull align 8 dereferenceable(8) %0) #1 comdat align 2 {
  %2 = alloca ptr, align 8
  store ptr %0, ptr %2, align 8
  %3 = load ptr, ptr %2, align 8
  %4 = call noundef i64 @_ZN33FastUnorderedElapsedCounterSource3nowEv()
  %5 = getelementptr inbounds %class.Representation, ptr %3, i32 0, i32 0
  store i64 %4, ptr %5, align 8
  ret void
}

; Function Attrs: mustprogress nounwind uwtable
define linkonce_odr hidden void @_ZN11TimeInstantI21CounterRepresentation33FastUnorderedElapsedCounterSourceEC2Ev(ptr noundef nonnull align 8 dereferenceable(8) %0) unnamed_addr #1 comdat align 2 {
  %2 = alloca ptr, align 8
  store ptr %0, ptr %2, align 8
  %3 = load ptr, ptr %2, align 8
  call void @_ZN21CounterRepresentationI33FastUnorderedElapsedCounterSourceEC2Ev(ptr noundef nonnull align 8 dereferenceable(8) %3)
  ret void
}

; Function Attrs: mustprogress nounwind uwtable
define internal noundef zeroext i1 @_ZL16only_for_removalv() #1 {
  %1 = call noundef zeroext i1 @_ZL5levelv()
  %2 = zext i1 %1 to i32
  %3 = icmp eq i32 %2, 0
  ret i1 %3
}

; Function Attrs: mustprogress nounwind uwtable
define linkonce_odr hidden i64 @_ZN11TimeInstantI21CounterRepresentation33FastUnorderedElapsedCounterSourceE3nowEv() #1 comdat align 2 {
  %1 = alloca %class.TimeInstant, align 8
  call void @_ZN11TimeInstantI21CounterRepresentation33FastUnorderedElapsedCounterSourceEC2Ev(ptr noundef nonnull align 8 dereferenceable(8) %1)
  call void @_ZN11TimeInstantI21CounterRepresentation33FastUnorderedElapsedCounterSourceE5stampEv(ptr noundef nonnull align 8 dereferenceable(8) %1)
  %2 = getelementptr inbounds %class.TimeInstant, ptr %1, i32 0, i32 0
  %3 = getelementptr inbounds %class.CounterRepresentation, ptr %2, i32 0, i32 0
  %4 = getelementptr inbounds %class.Representation, ptr %3, i32 0, i32 0
  %5 = load i64, ptr %4, align 8
  ret i64 %5
}

; Function Attrs: mustprogress nounwind uwtable
define hidden void @_ZN24JfrDeprecatedEventWriterC2ER14JfrChunkWriterR19JfrCheckpointWriterb(ptr noundef nonnull align 8 dereferenceable(26) %0, ptr noundef nonnull align 8 dereferenceable(88) %1, ptr noundef nonnull align 8 dereferenceable(73) %2, i1 noundef zeroext %3) unnamed_addr #1 align 2 {
  %5 = alloca ptr, align 8
  %6 = alloca ptr, align 8
  %7 = alloca ptr, align 8
  %8 = alloca i8, align 1
  store ptr %0, ptr %5, align 8
  store ptr %1, ptr %6, align 8
  store ptr %2, ptr %7, align 8
  %9 = zext i1 %3 to i8
  store i8 %9, ptr %8, align 1
  %10 = load ptr, ptr %5, align 8
  %11 = getelementptr inbounds %class.JfrDeprecatedEventWriter, ptr %10, i32 0, i32 0
  %12 = call i64 @_ZN11TimeInstantI21CounterRepresentation33FastUnorderedElapsedCounterSourceE3nowEv()
  %13 = getelementptr inbounds %class.TimeInstant, ptr %11, i32 0, i32 0
  %14 = getelementptr inbounds %class.CounterRepresentation, ptr %13, i32 0, i32 0
  %15 = getelementptr inbounds %class.Representation, ptr %14, i32 0, i32 0
  store i64 %12, ptr %15, align 8
  %16 = getelementptr inbounds %class.JfrDeprecatedEventWriter, ptr %10, i32 0, i32 1
  %17 = load ptr, ptr %6, align 8
  store ptr %17, ptr %16, align 8
  %18 = getelementptr inbounds %class.JfrDeprecatedEventWriter, ptr %10, i32 0, i32 2
  %19 = load ptr, ptr %7, align 8
  store ptr %19, ptr %18, align 8
  %20 = getelementptr inbounds %class.JfrDeprecatedEventWriter, ptr %10, i32 0, i32 3
  %21 = call noundef zeroext i1 @_ZL16only_for_removalv()
  %22 = zext i1 %21 to i8
  store i8 %22, ptr %20, align 8
  %23 = getelementptr inbounds %class.JfrDeprecatedEventWriter, ptr %10, i32 0, i32 4
  %24 = load i8, ptr %8, align 1
  %25 = trunc i8 %24 to i1
  %26 = zext i1 %25 to i8
  store i8 %26, ptr %23, align 1
  ret void
}