; Function Attrs: mustprogress nounwind uwtable
define hidden void @_ZN24JfrDeprecatedEventWriterC2ER14JfrChunkWriterR19JfrCheckpointWriterb(ptr nocapture noundef nonnull writeonly align 8 dereferenceable(26) %0, ptr noundef nonnull align 8 dereferenceable(88) %1, ptr noundef nonnull align 8 dereferenceable(73) %2, i1 noundef zeroext %3) unnamed_addr #2 align 2 {
  %5 = zext i1 %3 to i8
  %6 = tail call noundef i64 @_ZN33FastUnorderedElapsedCounterSource3nowEv() #14
  store i64 %6, ptr %0, align 8
  %7 = getelementptr inbounds i8, ptr %0, i64 8
  store ptr %1, ptr %7, align 8
  %8 = getelementptr inbounds i8, ptr %0, i64 16
  store ptr %2, ptr %8, align 8
  %9 = getelementptr inbounds i8, ptr %0, i64 24
  %10 = load i64, ptr @_ZL23_previous_level_setting, align 8
  %11 = icmp eq i64 %10, -1
  %12 = load i64, ptr @_ZL22_current_level_setting, align 8
  %13 = select i1 %11, i64 %12, i64 %10
  %.not.i = icmp eq i64 %13, 0
  %14 = zext i1 %.not.i to i8
  store i8 %14, ptr %9, align 8
  %15 = getelementptr inbounds i8, ptr %0, i64 25
  store i8 %5, ptr %15, align 1
  ret void
}